target datalayout = "e-m:e-p270:32:32-p271:32:32-p272:64:64-i64:64-i128:128-f80:128-n8:16:32:64-S128"
target triple = "x86_64-pc-linux-gnu"

%"class.cv::xphoto::LearningBasedWBImpl" = type <{ %"class.cv::xphoto::LearningBasedWB", i32, i32, i32, float, float, float, i32, i32, i32, [4 x i8], ptr, ptr, ptr, %"class.cv::Mat", %"class.cv::Mat", %"class.cv::Mat", %"class.cv::Mat", i32, [4 x i8] }>
%"class.cv::xphoto::LearningBasedWB" = type { %"class.cv::xphoto::WhiteBalancer" }
%"class.cv::xphoto::WhiteBalancer" = type { %"class.cv::Algorithm" }
%"class.cv::Algorithm" = type { ptr }
%"class.cv::Mat" = type { i32, i32, i32, i32, ptr, ptr, ptr, ptr, ptr, ptr, %"struct.cv::MatSize", %"struct.cv::MatStep" }
%"struct.cv::MatSize" = type { ptr }
%"struct.cv::MatStep" = type { ptr, [2 x i64] }
%"class.cv::Matx" = type { [2 x float] }

; Function Attrs: inlinehint mustprogress nounwind uwtable
define linkonce_odr hidden noundef nonnull align 4 dereferenceable(4) ptr @_ZN2cv3VecIfLi2EEixEi(ptr noundef nonnull align 4 dereferenceable(8) %0, i32 noundef %1) #5 comdat align 2 {
  %3 = alloca ptr, align 8
  %4 = alloca i32, align 4
  store ptr %0, ptr %3, align 8, !tbaa !52
  store i32 %1, ptr %4, align 4, !tbaa !27
  %5 = load ptr, ptr %3, align 8
  %6 = getelementptr inbounds nuw %"class.cv::Matx", ptr %5, i32 0, i32 0
  %7 = load i32, ptr %4, align 4, !tbaa !27
  %8 = sext i32 %7 to i64
  %9 = getelementptr inbounds [2 x float], ptr %6, i64 0, i64 %8
  ret ptr %9
}

; Function Attrs: mustprogress uwtable
define hidden noundef float @_ZN2cv6xphoto19LearningBasedWBImpl21regressionTreePredictENS_3VecIfLi2EEEPhPfS5_(ptr noundef nonnull align 8 dereferenceable(460) %0, ptr noundef %1, ptr noundef %2, ptr noundef %3, ptr noundef %4) #1 align 2 {
  %6 = alloca ptr, align 8
  %7 = alloca ptr, align 8
  %8 = alloca ptr, align 8
  %9 = alloca ptr, align 8
  %10 = alloca ptr, align 8
  %11 = alloca i32, align 4
  %12 = alloca i32, align 4
  store ptr %0, ptr %6, align 8, !tbaa !11
  store ptr %1, ptr %7, align 8, !tbaa !52
  store ptr %2, ptr %8, align 8, !tbaa !15
  store ptr %3, ptr %9, align 8, !tbaa !67
  store ptr %4, ptr %10, align 8, !tbaa !67
  %13 = load ptr, ptr %6, align 8
  call void @llvm.lifetime.start.p0(i64 4, ptr %11) #22
  store i32 0, ptr %11, align 4, !tbaa !27
  call void @llvm.lifetime.start.p0(i64 4, ptr %12) #22
  store i32 0, ptr %12, align 4, !tbaa !27
  br label %14

14:                                               ; preds = %44, %5
  %15 = load i32, ptr %12, align 4, !tbaa !27
  %16 = getelementptr inbounds nuw %"class.cv::xphoto::LearningBasedWBImpl", ptr %13, i32 0, i32 9
  %17 = load i32, ptr %16, align 8, !tbaa !87
  %18 = icmp slt i32 %15, %17
  br i1 %18, label %20, label %19

19:                                               ; preds = %14
  call void @llvm.lifetime.end.p0(i64 4, ptr %12) #22
  br label %47

20:                                               ; preds = %14
  %21 = load ptr, ptr %8, align 8, !tbaa !15
  %22 = load i32, ptr %11, align 4, !tbaa !27
  %23 = sext i32 %22 to i64
  %24 = getelementptr inbounds i8, ptr %21, i64 %23
  %25 = load i8, ptr %24, align 1, !tbaa !36
  %26 = zext i8 %25 to i32
  %27 = call noundef nonnull align 4 dereferenceable(4) ptr @_ZN2cv3VecIfLi2EEixEi(ptr noundef nonnull align 4 dereferenceable(8) %1, i32 noundef %26)
  %28 = load float, ptr %27, align 4, !tbaa !59
  %29 = load ptr, ptr %9, align 8, !tbaa !67
  %30 = load i32, ptr %11, align 4, !tbaa !27
  %31 = sext i32 %30 to i64
  %32 = getelementptr inbounds float, ptr %29, i64 %31
  %33 = load float, ptr %32, align 4, !tbaa !59
  %34 = fcmp ole float %28, %33
  br i1 %34, label %35, label %39

35:                                               ; preds = %20
  %36 = load i32, ptr %11, align 4, !tbaa !27
  %37 = mul nsw i32 2, %36
  %38 = add nsw i32 %37, 1
  store i32 %38, ptr %11, align 4, !tbaa !27
  br label %43

39:                                               ; preds = %20
  %40 = load i32, ptr %11, align 4, !tbaa !27
  %41 = mul nsw i32 2, %40
  %42 = add nsw i32 %41, 2
  store i32 %42, ptr %11, align 4, !tbaa !27
  br label %43

43:                                               ; preds = %39, %35
  br label %44

44:                                               ; preds = %43
  %45 = load i32, ptr %12, align 4, !tbaa !27
  %46 = add nsw i32 %45, 1
  store i32 %46, ptr %12, align 4, !tbaa !27
  br label %14, !llvm.loop !88

47:                                               ; preds = %19
  %48 = load ptr, ptr %10, align 8, !tbaa !67
  %49 = load i32, ptr %11, align 4, !tbaa !27
  %50 = getelementptr inbounds nuw %"class.cv::xphoto::LearningBasedWBImpl", ptr %13, i32 0, i32 8
  %51 = load i32, ptr %50, align 4, !tbaa !89
  %52 = sub nsw i32 %49, %51
  %53 = add nsw i32 %52, 1
  %54 = sext i32 %53 to i64
  %55 = getelementptr inbounds float, ptr %48, i64 %54
  %56 = load float, ptr %55, align 4, !tbaa !59
  call void @llvm.lifetime.end.p0(i64 4, ptr %11) #22
  ret float %56
}