; Function Attrs: mustprogress nofree norecurse nosync nounwind willreturn memory(argmem: read) uwtable
define hidden noundef float @_ZN2cv6xphoto19LearningBasedWBImpl21regressionTreePredictENS_3VecIfLi2EEEPhPfS5_(ptr noundef nonnull readonly align 8 captures(none) dereferenceable(460) %0, ptr noundef readonly captures(none) %1, ptr noundef readonly captures(none) %2, ptr noundef readonly captures(none) %3, ptr noundef readonly captures(none) %4) local_unnamed_addr #0 align 2 {
  %6 = getelementptr inbounds nuw i8, ptr %0, i64 40
  %7 = load i32, ptr %6, align 8, !tbaa !71
  %8 = icmp sgt i32 %7, 0
  br i1 %8, label %.lr.ph, label %._crit_edge

._crit_edge:                                      ; preds = %.lr.ph, %5
  %.010.lcssa = phi i32 [ 0, %5 ], [ %.1, %.lr.ph ]
  %9 = getelementptr inbounds nuw i8, ptr %0, i64 36
  %10 = load i32, ptr %9, align 4, !tbaa !72
  %11 = sub nsw i32 %.010.lcssa, %10
  %12 = sext i32 %11 to i64
  %13 = getelementptr float, ptr %4, i64 %12
  %14 = getelementptr i8, ptr %13, i64 4
  %15 = load float, ptr %14, align 4, !tbaa !39
  ret float %15

.lr.ph:                                           ; preds = %5, %.lr.ph
  %.012 = phi i32 [ %28, %.lr.ph ], [ 0, %5 ]
  %.01011 = phi i32 [ %.1, %.lr.ph ], [ 0, %5 ]
  %16 = sext i32 %.01011 to i64
  %17 = getelementptr inbounds i8, ptr %2, i64 %16
  %18 = load i8, ptr %17, align 1, !tbaa !32
  %19 = zext i8 %18 to i64
  %20 = getelementptr inbounds nuw [2 x float], ptr %1, i64 0, i64 %19
  %21 = load float, ptr %20, align 4, !tbaa !39
  %22 = getelementptr inbounds float, ptr %3, i64 %16
  %23 = load float, ptr %22, align 4, !tbaa !39
  %24 = fcmp ugt float %21, %23
  %25 = shl nsw i32 %.01011, 1
  %26 = or disjoint i32 %25, 1
  %27 = add nsw i32 %25, 2
  %.1 = select i1 %24, i32 %27, i32 %26
  %28 = add nuw nsw i32 %.012, 1
  %exitcond.not = icmp eq i32 %28, %7
  br i1 %exitcond.not, label %._crit_edge, label %.lr.ph, !llvm.loop !73
}